; Function Attrs: mustprogress uwtable
define internal fastcc noundef zeroext i1 @_ZNK12_GLOBAL__N_14Grid24getEastingNorthingOffsetEiiRdS1_(ptr nocapture noundef nonnull align 8 dereferenceable(72) %0, i32 noundef %1, i32 noundef %2, ptr nocapture noundef nonnull writeonly align 8 dereferenceable(8) %3, ptr nocapture noundef nonnull writeonly align 8 dereferenceable(8) %4) unnamed_addr #6 align 2 {
  %6 = alloca float, align 4
  %7 = alloca float, align 4
  %8 = tail call fastcc noundef zeroext i1 @_ZNK12_GLOBAL__N_14Grid15checkHorizontalERKNSt7__cxx1112basic_stringIcSt11char_traitsIcESaIcEEE(ptr noundef nonnull align 8 dereferenceable(72) %0, ptr noundef nonnull align 8 dereferenceable(32) @_ZN16DeformationModelL9STR_METREB5cxx11E)
  br i1 %8, label %9, label %32

9:                                                ; preds = %5
  store float 0.000000e+00, ptr %6, align 4
  store float 0.000000e+00, ptr %7, align 4
  %10 = getelementptr inbounds i8, ptr %0, i64 48
  %11 = load ptr, ptr %10, align 8
  %12 = getelementptr inbounds i8, ptr %0, i64 60
  %13 = load i32, ptr %12, align 4
  %14 = load ptr, ptr %11, align 8
  %15 = getelementptr inbounds i8, ptr %14, i64 72
  %16 = load ptr, ptr %15, align 8
  %17 = call noundef zeroext i1 %16(ptr noundef nonnull align 8 dereferenceable(144) %11, i32 noundef %1, i32 noundef %2, i32 noundef %13, ptr noundef nonnull align 4 dereferenceable(4) %6)
  br i1 %17, label %18, label %27

18:                                               ; preds = %9
  %19 = load ptr, ptr %10, align 8
  %20 = getelementptr inbounds i8, ptr %0, i64 64
  %21 = load i32, ptr %20, align 8
  %22 = load ptr, ptr %19, align 8
  %23 = getelementptr inbounds i8, ptr %22, i64 72
  %24 = load ptr, ptr %23, align 8
  %25 = call noundef zeroext i1 %24(ptr noundef nonnull align 8 dereferenceable(144) %19, i32 noundef %1, i32 noundef %2, i32 noundef %21, ptr noundef nonnull align 4 dereferenceable(4) %7)
  %.pre = load float, ptr %7, align 4
  %26 = fpext float %.pre to double
  br label %27

27:                                               ; preds = %18, %9
  %28 = phi double [ 0.000000e+00, %9 ], [ %26, %18 ]
  %29 = phi i1 [ false, %9 ], [ %25, %18 ]
  %30 = load float, ptr %6, align 4
  %31 = fpext float %30 to double
  store double %31, ptr %3, align 8
  store double %28, ptr %4, align 8
  br label %32

32:                                               ; preds = %5, %27
  %.0 = phi i1 [ %29, %27 ], [ false, %5 ]
  ret i1 %.0
}